(dp0
S'quenet-j'
p1
(lp2
(VFun
p3
F0.49085637692278405
tp4
a(VQuestion
p5
F0.32136898888197835
tp6
a(VWork
p7
F0.13746163775751716
tp8
a(VScheduling
p9
F0.050312996437720324
tp10
asS'perlingiere-d'
p11
(lp12
(g7
F0.9052214403042139
tp13
a(VTechnical
p14
F0.05869831027830551
tp15
a(g9
F0.03608024941748067
tp16
asS'davis-d'
p17
(lp18
(g3
F0.5620824633457325
tp19
a(g9
F0.1598073804034461
tp20
a(g14
F0.1273794457594766
tp21
a(VPeople
p22
F0.10361204498086242
tp23
a(g7
F0.04711866551048228
tp24
asS'arora-h'
p25
(lp26
(g5
F0.4417481092715592
tp27
a(g7
F0.2321479338583451
tp28
a(g9
F0.17776256457217732
tp29
a(g14
F0.09505689348573752
tp30
a(g3
F0.0532844988121808
tp31
asS'geaccone-t'
p32
(lp33
(g5
F0.6184895849005702
tp34
a(g14
F0.13830436881970581
tp35
a(g7
F0.1061440956466104
tp36
a(g9
F0.07316148710065717
tp37
a(g22
F0.06390046353245656
tp38
asS'haedicke-m'
p39
(lp40
(g7
F0.5922989292357923
tp41
a(g22
F0.16731203161551897
tp42
a(g9
F0.15054862062558352
tp43
a(g5
F0.08984041852310513
tp44
asS'farmer-d'
p45
(lp46
(g7
F0.8672487129861227
tp47
a(g9
F0.07978917569735142
tp48
a(g3
F0.05296211131652602
tp49
asS'dean-c'
p50
(lp51
(g3
F0.303317758366238
tp52
a(g5
F0.2901794399360106
tp53
a(g7
F0.21297329042463248
tp54
a(g9
F0.1290998502067816
tp55
a(g14
F0.06442966106633714
tp56
asS'badeer-r'
p57
(lp58
(g7
F0.4402590393161249
tp59
a(g22
F0.22414326215745825
tp60
a(g9
F0.1750828954869055
tp61
a(g5
F0.16051480303951154
tp62
asS'schoolcraft-d'
p63
(lp64
(g5
F0.2796101351974506
tp65
a(g22
F0.25228565443936424
tp66
a(g14
F0.22738039500038484
tp67
a(g7
F0.18097257667353614
tp68
a(g9
F0.059751238689264345
tp69
asS'keiser-k'
p70
(lp71
(g22
F0.41773825419884053
tp72
a(g7
F0.2642812468871099
tp73
a(g14
F0.17558102038828782
tp74
a(g5
F0.11661570173520831
tp75
a(g9
F0.02578377679055355
tp76
asS'king-j'
p77
(lp78
(g7
F0.3650800817181361
tp79
a(g5
F0.2792803061684215
tp80
a(g3
F0.19039787539327344
tp81
a(g14
F0.1652417367201689
tp82
asS'keavey-p'
p83
(lp84
(g7
F0.672088184490339
tp85
a(g14
F0.13932279399716466
tp86
a(g9
F0.13387652135408468
tp87
a(g5
F0.0547125001584118
tp88
asS'hyatt-k'
p89
(lp90
(g7
F0.3204136985076153
tp91
a(g5
F0.286270010541796
tp92
a(g9
F0.26416108207924394
tp93
a(g3
F0.12915520887134468
tp94
asS'mcconnell-m'
p95
(lp96
(g7
F0.5468399104871426
tp97
a(g9
F0.21572891622932255
tp98
a(g14
F0.0980531986940748
tp99
a(g22
F0.0823488347560636
tp100
a(g3
F0.05702913983339622
tp101
asS'hain-m'
p102
(lp103
(g7
F0.764673486154593
tp104
a(g22
F0.09841701742495061
tp105
a(g5
F0.09653542331211296
tp106
a(g14
F0.04037407310834339
tp107
asS'semperger-c'
p108
(lp109
(g7
F0.37412347091156406
tp110
a(g3
F0.29035100130725855
tp111
a(g14
F0.17754189044941676
tp112
a(g9
F0.11181526709377972
tp113
a(g5
F0.046168370237980996
tp114
asS'ermis-f'
p115
(lp116
(g7
F0.5544805715355396
tp117
a(g5
F0.1809099899858854
tp118
a(g3
F0.1366759232823755
tp119
a(g14
F0.12793351519619942
tp120
asS'jones-t'
p121
(lp122
(g7
F0.5403902234092813
tp123
a(g22
F0.326314853464951
tp124
a(g5
F0.04675459944501589
tp125
a(g14
F0.043654117396167494
tp126
a(g9
F0.042886206284584054
tp127
asS'zipper-a'
p128
(lp129
(g7
F0.5004449339367065
tp130
a(g9
F0.19521462004883922
tp131
a(g3
F0.12321699461560083
tp132
a(g5
F0.11208592675856656
tp133
a(g14
F0.06903752464028676
tp134
asS'hernandez-j'
p135
(lp136
(g3
F0.7742650361380277
tp137
a(g5
F0.08255186770551266
tp138
a(g14
F0.05175584288037466
tp139
a(g9
F0.04833341872789242
tp140
a(g7
F0.043093834548192364
tp141
asS'forney-j'
p142
(lp143
(g7
F0.3917507952113214
tp144
a(g5
F0.29217001787484953
tp145
a(g9
F0.13594607318996518
tp146
a(g14
F0.12899062256583615
tp147
a(g3
F0.05114249115802755
tp148
asS'lavorato-j'
p149
(lp150
(g7
F0.44220064025180117
tp151
a(g5
F0.31672800281171815
tp152
a(g9
F0.16844137903907525
tp153
a(g22
F0.07262997789740562
tp154
asS'benson-r'
p155
(lp156
(g7
F0.49669748784953566
tp157
a(g5
F0.23062958956328086
tp158
a(g3
F0.13901325030928854
tp159
a(g14
F0.07511658157928032
tp160
a(g9
F0.05854309069861459
tp161
asS'donohoe-t'
p162
(lp163
(g7
F0.654280943926886
tp164
a(g14
F0.14094723996193675
tp165
a(g5
F0.12317807968308501
tp166
a(g3
F0.0815937364280924
tp167
asS'scholtes-d'
p168
(lp169
(g7
F0.6855810361093033
tp170
a(g14
F0.25021077494352195
tp171
a(g9
F0.06420818894717482
tp172
asS'causholli-m'
p173
(lp174
(g7
F0.5686431536866109
tp175
a(g14
F0.23281623970795728
tp176
a(g22
F0.11407610274748364
tp177
a(g9
F0.04937033663369205
tp178
a(g3
F0.03509416722425627
tp179
asS'pimenov-v'
p180
(lp181
(g14
F0.4316467668520361
tp182
a(g7
F0.4054682614217831
tp183
a(g3
F0.0607868563152261
tp184
a(g5
F0.05440105366832576
tp185
a(g22
F0.047697061742628985
tp186
asS'hendrickson-s'
p187
(lp188
(g3
F0.6278120422923803
tp189
a(g7
F0.20313094577600044
tp190
a(g5
F0.0748526519750828
tp191
a(g9
F0.05401137076836917
tp192
a(g14
F0.0401929891881672
tp193
asS'fossum-d'
p194
(lp195
(g7
F0.4595928132070458
tp196
a(g22
F0.37065786118314786
tp197
a(g9
F0.0982678394855567
tp198
a(g14
F0.03611508599150228
tp199
a(g3
F0.03536640013274739
tp200
asS'allen-p'
p201
(lp202
(g7
F0.6354942746838125
tp203
a(g5
F0.1660505427032069
tp204
a(g9
F0.06965401700147633
tp205
a(g14
F0.06954661885857856
tp206
a(g22
F0.05925454675292579
tp207
asS'ybarbo-p'
p208
(lp209
(g7
F0.3431795775134632
tp210
a(g5
F0.2664291004656014
tp211
a(g14
F0.2003190069392179
tp212
a(g9
F0.13384009445267453
tp213
a(g22
F0.05623222062904302
tp214
asS'williams-w3'
p215
(lp216
(g7
F0.7310196526552473
tp217
a(g14
F0.13708557446562344
tp218
a(g9
F0.0852744811524083
tp219
a(g3
F0.046620291726721025
tp220
asS'blair-l'
p221
(lp222
(g22
F0.6599433728462407
tp223
a(g9
F0.13616943745773424
tp224
a(g7
F0.13163133394682974
tp225
a(g14
F0.07225585574919552
tp226
asS'tycholiz-b'
p227
(lp228
(g5
F0.3738794979405089
tp229
a(g7
F0.26233579396366025
tp230
a(g9
F0.20181646010418616
tp231
a(g14
F0.08406171915145318
tp232
a(g3
F0.07790652884019124
tp233
asS'griffith-j'
p234
(lp235
(g5
F0.35584294353530854
tp236
a(g14
F0.29504331797508965
tp237
a(g3
F0.1636159388024605
tp238
a(g9
F0.10208708609070745
tp239
a(g7
F0.08341071359643384
tp240
asS'staab-t'
p241
(lp242
(g7
F0.3124960648943989
tp243
a(g5
F0.30921218831341657
tp244
a(g9
F0.17852493936947572
tp245
a(g14
F0.15099886569056287
tp246
a(g3
F0.04876794173214601
tp247
asS'carson-m'
p248
(lp249
(g3
F0.34312843518000946
tp250
a(g5
F0.2619276828325841
tp251
a(g7
F0.2557395222712086
tp252
a(g9
F0.07493629311032902
tp253
a(g14
F0.06426806660586881
tp254
asS'lenhart-m'
p255
(lp256
(g3
F0.39116741547489375
tp257
a(g14
F0.2864617116047282
tp258
a(g5
F0.12369580218761045
tp259
a(g9
F0.11121296915555914
tp260
a(g22
F0.0874621015772085
tp261
asS'townsend-j'
p262
(lp263
(g7
F0.5859941809196906
tp264
a(g14
F0.29066316703524653
tp265
a(g5
F0.12334265204506321
tp266
asS'schwieger-j'
p267
(lp268
(g7
F0.5817338366393016
tp269
a(g3
F0.17430858078475941
tp270
a(g5
F0.14343896975550097
tp271
a(g14
F0.10051861282043817
tp272
asS'heard-m'
p273
(lp274
(g7
F0.6019689044210014
tp275
a(g14
F0.16150029031992547
tp276
a(g22
F0.13400636426311197
tp277
a(g5
F0.07070515185531275
tp278
a(g9
F0.03181928914064848
tp279
asS'dickson-s'
p280
(lp281
(g7
F0.7677335227907175
tp282
a(g14
F0.10693572592853018
tp283
a(g9
F0.08066047375706628
tp284
a(g5
F0.04467027752368604
tp285
asS'derrick-j'
p286
(lp287
(g7
F0.6752027432124373
tp288
a(g22
F0.13971181048862813
tp289
a(g14
F0.11537496014438822
tp290
a(g9
F0.06971048615454614
tp291
asS'baughman-d'
p292
(lp293
(g5
F0.4675339855640738
tp294
a(g3
F0.188910330807618
tp295
a(g14
F0.18199119073342726
tp296
a(g9
F0.11089759232928208
tp297
a(g7
F0.050666900565599145
tp298
asS'rapp-b'
p299
(lp300
(g14
F0.3341201514185911
tp301
a(g7
F0.31044907901893665
tp302
a(g5
F0.15579324819597354
tp303
a(g9
F0.1076557334728819
tp304
a(g22
F0.09198178789361686
tp305
asS'cuilla-m'
p306
(lp307
(g3
F0.441191852232977
tp308
a(g14
F0.208664186647393
tp309
a(g5
F0.19101441139513953
tp310
a(g9
F0.0836503357367812
tp311
a(g7
F0.07547921398770924
tp312
asS'lokay-m'
p313
(lp314
(g7
F0.5363686616625577
tp315
a(g5
F0.2167649290045636
tp316
a(g22
F0.13881311764563772
tp317
a(g9
F0.05776141476876391
tp318
a(g14
F0.050291876918477155
tp319
asS'dorland-c'
p320
(lp321
(g7
F0.26622320386321335
tp322
a(g3
F0.24525406137863515
tp323
a(g5
F0.19047452156066033
tp324
a(g14
F0.17063224104301855
tp325
a(g9
F0.1274159721544728
tp326
asS'shively-h'
p327
(lp328
(g5
F0.47524506751450846
tp329
a(g7
F0.2793009481876598
tp330
a(g9
F0.17224369031574643
tp331
a(g14
F0.07321029398208517
tp332
asS'love-p'
p333
(lp334
(g22
F0.41758807817644333
tp335
a(g3
F0.23808994030817343
tp336
a(g7
F0.15113519040696385
tp337
a(g14
F0.10298540583540083
tp338
a(g9
F0.09020138527301858
tp339
asS'platter-p'
p340
(lp341
(g3
F0.5313051325474801
tp342
a(g7
F0.30146214829607176
tp343
a(g14
F0.11097247833029071
tp344
a(VPolitics
p345
F0.06927895957133502
tp346
a(g22
F0.0562602408261574
tp347
asS'whalley-g'
p348
(lp349
(g7
F0.38602249527179383
tp350
a(g5
F0.2054831118555726
tp351
a(g9
F0.1616967976142477
tp352
a(g14
F0.1025431156532717
tp353
a(g22
F0.08637299210545105
tp354
a(g3
F0.05788148749966302
tp355
asS'symes-k'
p356
(lp357
(g7
F0.8756025336995483
tp358
a(g3
F0.0733471513045582
tp359
a(g9
F0.05105031499589331
tp360
asS'wolfe-j'
p361
(lp362
(g5
F0.5011672912880182
tp363
a(g14
F0.24267665479311817
tp364
a(g3
F0.1344696203443089
tp365
a(g7
F0.12168643357455483
tp366
asS'whalley-l'
p367
(lp368
(g7
F0.33892839510016465
tp369
a(g9
F0.28711986752655017
tp370
a(g5
F0.19912179801867635
tp371
a(g22
F0.1748299393546087
tp372
asS'ring-a'
p373
(lp374
(g3
F0.6680988620083086
tp375
a(g5
F0.14359476029882126
tp376
a(g14
F0.0838919445878282
tp377
a(g7
F0.07042754534794285
tp378
a(g9
F0.033986887757099106
tp379
asS'linder-e'
p380
(lp381
(g7
F0.4518962075848305
tp382
a(g9
F0.2910179640718563
tp383
a(g3
F0.09900199600798405
tp384
a(g14
F0.08902195608782437
tp385
a(g5
F0.06906187624750501
tp386
asS'martin-t'
p387
(lp388
(g7
F0.36973650350888343
tp389
a(g5
F0.2869672603968394
tp390
a(g9
F0.18652629175757937
tp391
a(g14
F0.11041939914946158
tp392
a(g3
F0.04635054518723623
tp393
asS'zufferli-j'
p394
(lp395
(g5
F0.43972346913528093
tp396
a(g14
F0.2531377023081112
tp397
a(g7
F0.17455143424844377
tp398
a(g9
F0.0748869443128743
tp399
a(g3
F0.057700449995289865
tp400
asS'ruscitti-k'
p401
(lp402
(g3
F0.4041501866818963
tp403
a(g5
F0.20036535794624377
tp404
a(g9
F0.16872650605681389
tp405
a(g7
F0.1631220333782926
tp406
a(g14
F0.06363591593675355
tp407
asS'steffes-j'
p408
(lp409
(g7
F0.7687836645771162
tp410
a(g14
F0.11257789165901105
tp411
a(g9
F0.08410525889889114
tp412
a(g22
F0.03453318486498147
tp413
asS'ring-r'
p414
(lp415
(g5
F0.31824548835123234
tp416
a(g7
F0.29634519314777097
tp417
a(g9
F0.15009631584670757
tp418
a(g14
F0.14297354979245802
tp419
a(g22
F0.09233945286183107
tp420
asS'holst-k'
p421
(lp422
(g7
F0.42355968449004516
tp423
a(g5
F0.32692460567480447
tp424
a(g3
F0.08994975306832334
tp425
a(g14
F0.08125001665153027
tp426
a(g9
F0.07831594011529691
tp427
asS'nemec-g'
p428
(lp429
(g7
F0.5958827715116622
tp430
a(g14
F0.1844998161464222
tp431
a(g3
F0.14085045045021222
tp432
a(g5
F0.04154477088789838
tp433
a(g9
F0.03722219100380493
tp434
asS'hayslett-r'
p435
(lp436
(g5
F0.5699838959999779
tp437
a(g7
F0.24195124163254092
tp438
a(g22
F0.07838979311363638
tp439
a(g9
F0.06605089321115803
tp440
a(g14
F0.0436241760426867
tp441
asS'mann-k'
p442
(lp443
(g7
F0.3880987714432389
tp444
a(g5
F0.2448362642170083
tp445
a(g14
F0.16802380284372545
tp446
a(g3
F0.10936379240005004
tp447
a(g9
F0.08967736909597745
tp448
asS'guzman-m'
p449
(lp450
(g3
F0.5798858791684834
tp451
a(g9
F0.18735674571006208
tp452
a(g7
F0.1863754624409425
tp453
a(g5
F0.04638191268051198
tp454
asS'cash-m'
p455
(lp456
(g7
F0.797768806481481
tp457
a(g14
F0.15340849859611197
tp458
a(g9
F0.048822694922406956
tp459
asS'brawner-s'
p460
(lp461
(g3
F0.6690547315488137
tp462
a(g9
F0.1482822335589635
tp463
a(g14
F0.12513579585001167
tp464
a(g7
F0.05752723904221112
tp465
asS'gilbertsmith-d'
p466
(lp467
(g5
F0.45545331095410346
tp468
a(g7
F0.43151676571601716
tp469
a(g9
F0.07164181658698561
tp470
a(g14
F0.04138810674289389
tp471
asS'scott-s'
p472
(lp473
(g3
F0.47704926952184423
tp474
a(g7
F0.25476901366433435
tp475
a(g9
F0.10083781014835638
tp476
a(g5
F0.06526529431603816
tp477
a(g22
F0.06451328010021318
tp478
a(g14
F0.0375653322492134
tp479
asS'gang-l'
p480
(lp481
(g7
F0.45705933082997474
tp482
a(g14
F0.2434016490864946
tp483
a(g5
F0.16269890675051146
tp484
a(g3
F0.09914960804338177
tp485
a(g9
F0.03769050528963741
tp486
asS'hyvl-d'
p487
(lp488
(g7
F0.8542488360933684
tp489
a(g14
F0.057315574961854965
tp490
a(g22
F0.051674106123303754
tp491
a(g3
F0.036761482821472784
tp492
asS'crandell-s'
p493
(lp494
(g7
F0.6426662240922314
tp495
a(g5
F0.14179770457685043
tp496
a(g14
F0.09721344793295136
tp497
a(g9
F0.07623437119713355
tp498
a(g3
F0.04208825220083327
tp499
asS'kaminski-v'
p500
(lp501
(g7
F0.41990411369650593
tp502
a(g22
F0.2783067659602322
tp503
a(g5
F0.16322798178127335
tp504
a(g14
F0.08612677483793232
tp505
a(g9
F0.052434363724056104
tp506
asS'stepenovitch-j'
p507
(lp508
(g5
F0.48697111914401203
tp509
a(g14
F0.2135316470707436
tp510
a(g3
F0.15175225030392123
tp511
a(g9
F0.12022221067208713
tp512
a(g7
F0.02752277280923611
tp513
asS'grigsby-m'
p514
(lp515
(g7
F0.49853702953026185
tp516
a(g5
F0.24017353098886599
tp517
a(g14
F0.1402246372120424
tp518
a(g9
F0.12106480226882974
tp519
asS'swerzbin-m'
p520
(lp521
(g7
F0.4804453932978462
tp522
a(g14
F0.22418574772427013
tp523
a(g5
F0.1277755551380951
tp524
a(g3
F0.09234912765667157
tp525
a(g9
F0.07524417618311711
tp526
asS'sturm-f'
p527
(lp528
(g5
F0.4717783601048639
tp529
a(g7
F0.199408706002093
tp530
a(g9
F0.19304788540868115
tp531
a(g3
F0.13576504848436194
tp532
asS'shapiro-r'
p533
(lp534
(g7
F0.8392205225263797
tp535
a(g22
F0.0948424716313336
tp536
a(g9
F0.06593700584228661
tp537
asS'neal-s'
p538
(lp539
(g5
F0.46585100636167925
tp540
a(g7
F0.2811968652671612
tp541
a(g9
F0.1958977929487
tp542
a(g14
F0.05705433542245943
tp543
asS'kean-s'
p544
(lp545
(g22
F0.43256493745761676
tp546
a(g7
F0.38475665509711315
tp547
a(g9
F0.11629503644330418
tp548
a(g14
F0.0663833710019658
tp549
asS'richey-c'
p550
(lp551
(g5
F0.4392873219141028
tp552
a(g14
F0.27223034848509886
tp553
a(g3
F0.19529841202971976
tp554
a(g9
F0.09318391757107858
tp555
asS'mclaughlin-e'
p556
(lp557
(g22
F0.5302905725382477
tp558
a(g7
F0.26201075532821516
tp559
a(g9
F0.11625657627982017
tp560
a(g14
F0.09144209585371671
tp561
asS'kuykendall-t'
p562
(lp563
(g3
F0.5433171525743391
tp564
a(g14
F0.1707995804451803
tp565
a(g7
F0.1499093028333074
tp566
a(g9
F0.08472131701907219
tp567
a(g5
F0.051252647128101
tp568
asS'mccarty-d'
p569
(lp570
(g7
F0.44971413775416186
tp571
a(g5
F0.3727766545464841
tp572
a(g9
F0.06822714537977816
tp573
a(g22
F0.0615911107712799
tp574
a(g14
F0.047690951548295946
tp575
asS'sager-e'
p576
(lp577
(g7
F0.2841888567922708
tp578
a(g22
F0.19345519660451455
tp579
a(g9
F0.17857898426325566
tp580
a(g5
F0.16550310117772432
tp581
a(g14
F0.1069038090309427
tp582
a(g3
F0.0713700521312918
tp583
asS'arnold-j'
p584
(lp585
(g5
F0.3305026277889007
tp586
a(g7
F0.3278000156674428
tp587
a(g3
F0.1338026884994381
tp588
a(g9
F0.10799757889112907
tp589
a(g14
F0.09989708915308917
tp590
asS'lay-k'
p591
(lp592
(g7
F0.5880656419138568
tp593
a(g22
F0.16846157364082268
tp594
a(g9
F0.15617207232647454
tp595
a(g14
F0.08730071211884588
tp596
asS'meyers-a'
p597
(lp598
(g7
F0.47881830803680003
tp599
a(g14
F0.2022133328999607
tp600
a(g9
F0.17520137400316457
tp601
a(g22
F0.082034426079289
tp602
a(g3
F0.06173255898078582
tp603
asS'smith-m'
p604
(lp605
(g7
F0.3142183122919113
tp606
a(g3
F0.22622061725609177
tp607
a(g5
F0.17759817442925338
tp608
a(g9
F0.16355961423821097
tp609
a(g14
F0.11840328178453226
tp610
asS'weldon-c'
p611
(lp612
(g7
F0.36395923648215006
tp613
a(g14
F0.26494197050201457
tp614
a(g3
F0.2296670018509772
tp615
a(g9
F0.07137207951157325
tp616
a(g22
F0.07005971165328474
tp617
asS'pereira-s'
p618
(lp619
(g7
F0.3614073206429068
tp620
a(g3
F0.34464669424302563
tp621
a(g9
F0.13399359317028173
tp622
a(g14
F0.0987309125330067
tp623
a(g5
F0.06122147941077924
tp624
asS'horton-s'
p625
(lp626
(g7
F0.26805068910514307
tp627
a(g3
F0.24703539997615373
tp628
a(g9
F0.1881200873641711
tp629
a(g22
F0.18456278009151544
tp630
a(g5
F0.11223104346301666
tp631
asS'presto-k'
p632
(lp633
(g5
F0.4703490070118608
tp634
a(g7
F0.37626667363585026
tp635
a(g9
F0.08586825508271738
tp636
a(g14
F0.06751606426957174
tp637
asS'mims-thurston-p'
p638
(lp639
(g3
F0.517093878936756
tp640
a(g7
F0.23494609754034498
tp641
a(g9
F0.15902204839427692
tp642
a(g14
F0.04913782644436167
tp643
a(g5
F0.039800148684260704
tp644
asS'shackleton-s'
p645
(lp646
(g5
F0.40925976536737285
tp647
a(g7
F0.3904170958183196
tp648
a(g22
F0.1117941377681086
tp649
a(g14
F0.04478039215362449
tp650
a(g9
F0.0437486088925744
tp651
asS'lewis-a'
p652
(lp653
(g3
F0.29737115991988083
tp654
a(g5
F0.23650016276276914
tp655
a(g14
F0.22909985351843812
tp656
a(g9
F0.16620216400700413
tp657
a(g7
F0.07082665979190779
tp658
asS'beck-s'
p659
(lp660
(g5
F0.47260086655146794
tp661
a(g7
F0.23712509544981247
tp662
a(g9
F0.15135380891125308
tp663
a(g3
F0.08835449887767233
tp664
a(g14
F0.050565730209794026
tp665
asS'delainey-d'
p666
(lp667
(g7
F0.7225373085642073
tp668
a(g9
F0.11246891090633515
tp669
a(g22
F0.09444417112739449
tp670
a(g5
F0.07054960940206303
tp671
asS'may-l'
p672
(lp673
(g7
F0.35804269503243663
tp674
a(g22
F0.20221255443843367
tp675
a(g14
F0.20069061875358418
tp676
a(g5
F0.13959250870473217
tp677
a(g9
F0.09946162307081342
tp678
asS'williams-j'
p679
(lp680
(g5
F0.2647974475310947
tp681
a(g14
F0.2630478759711864
tp682
a(g7
F0.17572074184283665
tp683
a(g3
F0.17172308366864175
tp684
a(g22
F0.12471085098624074
tp685
asS'stclair-c'
p686
(lp687
(g7
F0.5686775182020494
tp688
a(g22
F0.25233729054982706
tp689
a(g9
F0.11574684657643193
tp690
a(g14
F0.031721132058429385
tp691
a(g3
F0.03151721261326246
tp692
asS'germany-c'
p693
(lp694
(g7
F0.8063600301703934
tp695
a(g3
F0.08851936851266756
tp696
a(g9
F0.07810692995018151
tp697
a(g14
F0.027013671366757513
tp698
asS'rodrique-r'
p699
(lp700
(g7
F0.42303377563509553
tp701
a(g3
F0.32173697279308894
tp702
a(g9
F0.11687948714530635
tp703
a(g14
F0.10544180575549117
tp704
a(g22
F0.03290795867101809
tp705
asS'whitt-m'
p706
(lp707
(g5
F0.5020677848091384
tp708
a(g14
F0.22843425424988173
tp709
a(g3
F0.1785572760246026
tp710
a(g7
F0.04719914997816209
tp711
a(g9
F0.0437415349382151
tp712
asS'panus-s'
p713
(lp714
(g7
F0.6308932544591265
tp715
a(g5
F0.12927958006573942
tp716
a(g14
F0.12626935607252232
tp717
a(g22
F0.11355780940261206
tp718
asS'buy-r'
p719
(lp720
(g7
F0.39016435250364706
tp721
a(g22
F0.30401841669945545
tp722
a(g9
F0.1378717441738552
tp723
a(g5
F0.10211472325352221
tp724
a(g14
F0.06583076336952018
tp725
asS'giron-d'
p726
(lp727
(g22
F0.4791418397922609
tp728
a(g3
F0.1443451940081226
tp729
a(g7
F0.13248696211972094
tp730
a(g5
F0.0877996720509839
tp731
a(g9
F0.08611931872554343
tp732
a(g14
F0.07010701330336834
tp733
asS'bass-e'
p734
(lp735
(g22
F0.3758599440919452
tp736
a(g5
F0.253390239907596
tp737
a(g3
F0.21151397319726695
tp738
a(g7
F0.12774728595357623
tp739
a(g9
F0.03148855684961553
tp740
asS'saibi-e'
p741
(lp742
(g5
F0.4865248407277839
tp743
a(g14
F0.17339572130088252
tp744
a(g3
F0.16973600197087346
tp745
a(g7
F0.13777992771565162
tp746
a(g22
F0.032563508284808126
tp747
asS'maggi-m'
p748
(lp749
(g14
F0.7528240349303704
tp750
a(g3
F0.13688806027241007
tp751
a(g9
F0.06105306008692518
tp752
a(g5
F0.049234844710294164
tp753
asS'white-s'
p754
(lp755
(g5
F0.5202449230076134
tp756
a(g7
F0.21848479584302907
tp757
a(g14
F0.11535204305895458
tp758
a(g9
F0.09177497797785993
tp759
a(g22
F0.054143260112542925
tp760
asS'lokey-t'
p761
(lp762
(g5
F0.3798682159895248
tp763
a(g22
F0.17390326054153415
tp764
a(g7
F0.1304948141347981
tp765
a(g3
F0.1272578445451336
tp766
a(g9
F0.1044625953867862
tp767
a(g14
F0.084013269402223
tp768
asS'rogers-b'
p769
(lp770
(g5
F0.38757346457462005
tp771
a(g9
F0.1822756402973006
tp772
a(g7
F0.1804928022172098
tp773
a(g3
F0.13246221535667632
tp774
a(g14
F0.11719587755419326
tp775
asS'gay-r'
p776
(lp777
(g7
F0.6420061216719527
tp778
a(g9
F0.1437487085414857
tp779
a(g3
F0.07410182662930738
tp780
a(g5
F0.07286577195820493
tp781
a(g22
F0.06727757119904906
tp782
asS'taylor-m'
p783
(lp784
(g7
F0.5739980974313135
tp785
a(g22
F0.13877987923075585
tp786
a(g14
F0.12738398502356654
tp787
a(g9
F0.09088294583970608
tp788
a(g3
F0.06895509247465799
tp789
asS'slinger-r'
p790
(lp791
(g7
F0.6586346177201754
tp792
a(g14
F0.14046417177589698
tp793
a(g5
F0.12868305668820887
tp794
a(g9
F0.07221815381571887
tp795
asS'sanchez-m'
p796
(lp797
(g3
F0.43645525859452056
tp798
a(g5
F0.24043130252180048
tp799
a(g14
F0.12901244020549366
tp800
a(g9
F0.11379099942308088
tp801
a(g7
F0.08030999925510432
tp802
asS'quigley-d'
p803
(lp804
(g5
F0.46847337259107885
tp805
a(g14
F0.1891170505873814
tp806
a(g3
F0.16246268446902823
tp807
a(g9
F0.10175982418259036
tp808
a(g7
F0.07818706816992131
tp809
asS'south-s'
p810
(lp811
(g3
F0.38090067484423906
tp812
a(g7
F0.3789865607674584
tp813
a(g9
F0.19694944774271844
tp814
a(g14
F0.043163316645584045
tp815
asS'motley-m'
p816
(lp817
(g3
F0.3935319075565993
tp818
a(g7
F0.2611492275864849
tp819
a(g5
F0.14475048961942016
tp820
a(g9
F0.14093802859247798
tp821
a(g14
F0.0596303466450176
tp822
asS'sanders-r'
p823
(lp824
(g7
F0.6434194368958878
tp825
a(g9
F0.1508167056022705
tp826
a(g14
F0.1430908930392017
tp827
a(g22
F0.06267296446264019
tp828
asS'dasovich-j'
p829
(lp830
(g7
F0.42127647042412836
tp831
a(g22
F0.2395959440964197
tp832
a(g5
F0.1572896198428132
tp833
a(g9
F0.130946928407967
tp834
a(g3
F0.050891037228671755
tp835
asS'hodge-j'
p836
(lp837
(g7
F0.4561725363698067
tp838
a(g14
F0.3590547573056496
tp839
a(g22
F0.1193821572922569
tp840
a(g9
F0.0653905490322866
tp841
asS'storey-g'
p842
(lp843
(g14
F0.4348680973396198
tp844
a(g7
F0.35079555399517875
tp845
a(g5
F0.14966508799598166
tp846
a(g9
F0.06467126066921974
tp847
asS'kitchen-l'
p848
(lp849
(g5
F0.6095887084894281
tp850
a(g7
F0.16597402123185795
tp851
a(g14
F0.09357415273046789
tp852
a(g9
F0.09098311360969302
tp853
a(g3
F0.03988000393855287
tp854
asS'lucci-p'
p855
(lp856
(g5
F0.3303442218084673
tp857
a(g3
F0.29332735501637025
tp858
a(g14
F0.2621800040241612
tp859
a(g9
F0.11414841915100152
tp860
asS'shankman-j'
p861
(lp862
(g7
F0.531353943553559
tp863
a(g22
F0.21056163918737203
tp864
a(g9
F0.16276740958995872
tp865
a(g3
F0.09531700766911032
tp866
asS'salisbury-h'
p867
(lp868
(g7
F0.6804146691296921
tp869
a(g14
F0.24574396704202428
tp870
a(g9
F0.07384136382828382
tp871
asS'donoho-l'
p872
(lp873
(g5
F0.3943556236387724
tp874
a(g7
F0.2855869152345552
tp875
a(g9
F0.132687562031868
tp876
a(g14
F0.07455105884544248
tp877
a(g22
F0.07433587990568433
tp878
a(g3
F0.03848296034367751
tp879
asS'watson-k'
p880
(lp881
(g5
F0.48783364271580826
tp882
a(g9
F0.1786289178911839
tp883
a(g7
F0.17612668250661034
tp884
a(g22
F0.11343310035824278
tp885
a(g14
F0.04397765652815481
tp886
asS'solberg-g'
p887
(lp888
(g7
F0.7619240755451482
tp889
a(g14
F0.1210008972007334
tp890
a(g3
F0.07847693877687945
tp891
a(g5
F0.03859808847723892
tp892
asS'skilling-j'
p893
(lp894
(g7
F0.4994333881314031
tp895
a(g9
F0.27201335568070706
tp896
a(g22
F0.14696448927999708
tp897
a(g3
F0.04108114617713283
tp898
a(g14
F0.04050762073076008
tp899
asS'thomas-p'
p900
(lp901
(g5
F0.3660557818783069
tp902
a(g14
F0.32780740903901
tp903
a(g3
F0.1574951338633644
tp904
a(g7
F0.14864167521931873
tp905
asS'fischer-m'
p906
(lp907
(g7
F0.4729004360941421
tp908
a(g5
F0.17832705547845304
tp909
a(g14
F0.14945312689438164
tp910
a(g22
F0.1375826693690482
tp911
a(g9
F0.061736712163974916
tp912
asS'mckay-b'
p913
(lp914
(g14
F0.37279186750911886
tp915
a(g3
F0.3115130373025108
tp916
a(g5
F0.1706316925870177
tp917
a(g9
F0.07958277283556306
tp918
a(g7
F0.06548062976578949
tp919
asS'reitmeyer-j'
p920
(lp921
(g5
F0.3962469597663518
tp922
a(g3
F0.2134847071431321
tp923
a(g14
F0.19890401613643505
tp924
a(g9
F0.1443200630861826
tp925
a(g7
F0.047044253867898414
tp926
asS'tholt-j'
p927
(lp928
(g7
F0.42331240586494867
tp929
a(g3
F0.22354292470992848
tp930
a(g9
F0.12758748657386745
tp931
a(g5
F0.11529250272329965
tp932
a(g14
F0.11026468012795576
tp933
asS'mckay-j'
p934
(lp935
(g5
F0.4107979264338885
tp936
a(g14
F0.3403784666934889
tp937
a(g3
F0.1453887790737078
tp938
a(g7
F0.05312596600113091
tp939
a(g9
F0.0503088617977837
tp940
asS'corman-s'
p941
(lp942
(g5
F0.35828245118580193
tp943
a(g22
F0.20525172116942492
tp944
a(g9
F0.17760393160124036
tp945
a(g3
F0.13907630699942936
tp946
a(g7
F0.06334435359784887
tp947
a(g14
F0.05644123544625459
tp948
asS'campbell-l'
p949
(lp950
(g7
F0.6836192718676344
tp951
a(g5
F0.09478700181602348
tp952
a(g9
F0.08619511725924503
tp953
a(g22
F0.05185577170099655
tp954
a(g14
F0.04506438195523318
tp955
a(g3
F0.03847845540086738
tp956
asS'parks-j'
p957
(lp958
(g5
F0.39017489769069824
tp959
a(g7
F0.290785760689638
tp960
a(g14
F0.2618221444440729
tp961
a(g9
F0.0332516257429377
tp962
a(g3
F0.023965571432653106
tp963
asS'ward-k'
p964
(lp965
(g7
F0.36346559118365473
tp966
a(g14
F0.2645993044179323
tp967
a(g3
F0.2324572781607456
tp968
a(g9
F0.08367222838964164
tp969
a(g5
F0.05580559784802569
tp970
asS'bailey-s'
p971
(lp972
(g7
F0.7147704680649913
tp973
a(g22
F0.1544318322313907
tp974
a(g14
F0.10288716579880874
tp975
a(g9
F0.02791053390480914
tp976
as.