(lp0
S'sanders-r'
p1
aS'fossum-d'
p2
aS'nemec-g'
p3
aS'arnold-j'
p4
aS'perlingiere-d'
p5
aS'love-p'
p6
aS'taylor-m'
p7
aS'scott-s'
p8
aS'symes-k'
p9
aS'beck-s'
p10
aS'lenhart-m'
p11
aS'bass-e'
p12
aS'jones-t'
p13
aS'shackleton-s'
p14
aS'germany-c'
p15
aS'dasovich-j'
p16
aS'kaminski-v'
p17
aS'mann-k'
p18
a.